target datalayout = "e-m:e-p270:32:32-p271:32:32-p272:64:64-i64:64-i128:128-f80:128-n8:16:32:64-S128"
target triple = "x86_64-unknown-linux-gnu"

%"class.std::vector" = type { %"struct.std::_Vector_base" }
%"struct.std::_Vector_base" = type { %"struct.std::_Vector_base<unsigned long, std::allocator<unsigned long>>::_Vector_impl" }
%"struct.std::_Vector_base<unsigned long, std::allocator<unsigned long>>::_Vector_impl" = type { %"struct.std::_Vector_base<unsigned long, std::allocator<unsigned long>>::_Vector_impl_data" }
%"struct.std::_Vector_base<unsigned long, std::allocator<unsigned long>>::_Vector_impl_data" = type { ptr, ptr, ptr }
%"class.std::mutex" = type { %"class.std::__mutex_base" }
%"class.std::__mutex_base" = type { %union.pthread_mutex_t }
%union.pthread_mutex_t = type { %struct.__pthread_mutex_s }
%struct.__pthread_mutex_s = type { i32, i32, i32, i32, i32, i16, i16, %struct.__pthread_internal_list }
%struct.__pthread_internal_list = type { ptr, ptr }
%"class.facebook::velox::memory::MmapAllocator::SizeClass" = type { i64, i64, i64, i32, %"class.std::mutex", ptr, i32, i32, i32, %"class.std::vector", %"class.std::vector", %"class.std::vector", i64, i64, i64 }

; Function Attrs: mustprogress nounwind uwtable
define linkonce_odr void @_ZN8facebook5velox4bits6setBitImEEvPT_j(ptr noundef %bits, i32 noundef %idx) #1 comdat {
entry:
  %bits.addr = alloca ptr, align 8
  %idx.addr = alloca i32, align 4
  %bitsAs8Bit = alloca ptr, align 8
  store ptr %bits, ptr %bits.addr, align 8
  store i32 %idx, ptr %idx.addr, align 4
  %0 = load ptr, ptr %bits.addr, align 8
  store ptr %0, ptr %bitsAs8Bit, align 8
  %1 = load i32, ptr %idx.addr, align 4
  %rem = urem i32 %1, 8
  %shl = shl i32 1, %rem
  %2 = load ptr, ptr %bitsAs8Bit, align 8
  %3 = load i32, ptr %idx.addr, align 4
  %div = udiv i32 %3, 8
  %idxprom = zext i32 %div to i64
  %arrayidx = getelementptr inbounds i8, ptr %2, i64 %idxprom
  %4 = load i8, ptr %arrayidx, align 1
  %conv = zext i8 %4 to i32
  %or = or i32 %conv, %shl
  %conv1 = trunc i32 %or to i8
  store i8 %conv1, ptr %arrayidx, align 1
  ret void
}

; Function Attrs: mustprogress nounwind uwtable
define linkonce_odr noundef nonnull align 4 dereferenceable(4) ptr @_ZSt3minIiERKT_S2_S2_(ptr noundef nonnull align 4 dereferenceable(4) %__a, ptr noundef nonnull align 4 dereferenceable(4) %__b) #1 comdat {
entry:
  %retval = alloca ptr, align 8
  %__a.addr = alloca ptr, align 8
  %__b.addr = alloca ptr, align 8
  store ptr %__a, ptr %__a.addr, align 8
  store ptr %__b, ptr %__b.addr, align 8
  %0 = load ptr, ptr %__b.addr, align 8
  %1 = load i32, ptr %0, align 4
  %2 = load ptr, ptr %__a.addr, align 8
  %3 = load i32, ptr %2, align 4
  %cmp = icmp slt i32 %1, %3
  br i1 %cmp, label %if.then, label %if.end

if.then:                                          ; preds = %entry
  %4 = load ptr, ptr %__b.addr, align 8
  store ptr %4, ptr %retval, align 8
  br label %return

if.end:                                           ; preds = %entry
  %5 = load ptr, ptr %__a.addr, align 8
  store ptr %5, ptr %retval, align 8
  br label %return

return:                                           ; preds = %if.end, %if.then
  %6 = load ptr, ptr %retval, align 8
  ret ptr %6
}

; Function Attrs: mustprogress nounwind uwtable
define linkonce_odr noundef nonnull align 8 dereferenceable(8) ptr @_ZNSt6vectorImSaImEEixEm(ptr noundef nonnull align 8 dereferenceable(24) %this, i64 noundef %__n) #1 comdat align 2 {
entry:
  %this.addr = alloca ptr, align 8
  %__n.addr = alloca i64, align 8
  store ptr %this, ptr %this.addr, align 8
  store i64 %__n, ptr %__n.addr, align 8
  %this1 = load ptr, ptr %this.addr, align 8
  %_M_impl = getelementptr inbounds %"struct.std::_Vector_base", ptr %this1, i32 0, i32 0
  %_M_start = getelementptr inbounds %"struct.std::_Vector_base<unsigned long, std::allocator<unsigned long>>::_Vector_impl_data", ptr %_M_impl, i32 0, i32 0
  %0 = load ptr, ptr %_M_start, align 8
  %1 = load i64, ptr %__n.addr, align 8
  %add.ptr = getelementptr inbounds i64, ptr %0, i64 %1
  ret ptr %add.ptr
}

; Function Attrs: mustprogress uwtable
define void @_ZN8facebook5velox6memory13MmapAllocator9SizeClass11allocateAnyEiRiRmRNS1_10AllocationE(ptr noundef nonnull align 8 dereferenceable(192) %this, i32 noundef %wordIndex, ptr noundef nonnull align 4 dereferenceable(4) %numPages, ptr noundef nonnull align 8 dereferenceable(8) %numUnmapped, ptr noundef nonnull align 8 dereferenceable(36) %allocation) #0 align 2 {
entry:
  %this.addr = alloca ptr, align 8
  %wordIndex.addr = alloca i32, align 4
  %numPages.addr = alloca ptr, align 8
  %numUnmapped.addr = alloca ptr, align 8
  %allocation.addr = alloca ptr, align 8
  %freeBits = alloca i64, align 8
  %toAlloc = alloca i32, align 4
  %ref.tmp = alloca i32, align 4
  %i = alloca i32, align 4
  %bit = alloca i32, align 4
  store ptr %this, ptr %this.addr, align 8
  store i32 %wordIndex, ptr %wordIndex.addr, align 4
  store ptr %numPages, ptr %numPages.addr, align 8
  store ptr %numUnmapped, ptr %numUnmapped.addr, align 8
  store ptr %allocation, ptr %allocation.addr, align 8
  %this1 = load ptr, ptr %this.addr, align 8
  %pageAllocated_ = getelementptr inbounds %"class.facebook::velox::memory::MmapAllocator::SizeClass", ptr %this1, i32 0, i32 10
  %0 = load i32, ptr %wordIndex.addr, align 4
  %conv = sext i32 %0 to i64
  %call = call noundef nonnull align 8 dereferenceable(8) ptr @_ZNSt6vectorImSaImEEixEm(ptr noundef nonnull align 8 dereferenceable(24) %pageAllocated_, i64 noundef %conv) #21
  %1 = load i64, ptr %call, align 8
  %not = xor i64 %1, -1
  store i64 %not, ptr %freeBits, align 8
  %2 = load ptr, ptr %numPages.addr, align 8
  %3 = load i64, ptr %freeBits, align 8
  %4 = call i64 @llvm.ctpop.i64(i64 %3)
  %cast = trunc i64 %4 to i32
  store i32 %cast, ptr %ref.tmp, align 4
  %call2 = call noundef nonnull align 4 dereferenceable(4) ptr @_ZSt3minIiERKT_S2_S2_(ptr noundef nonnull align 4 dereferenceable(4) %2, ptr noundef nonnull align 4 dereferenceable(4) %ref.tmp)
  %5 = load i32, ptr %call2, align 4
  store i32 %5, ptr %toAlloc, align 4
  store i32 0, ptr %i, align 4
  br label %for.cond

for.cond:                                         ; preds = %for.inc, %entry
  %6 = load i32, ptr %i, align 4
  %7 = load i32, ptr %toAlloc, align 4
  %cmp = icmp slt i32 %6, %7
  br i1 %cmp, label %for.body, label %for.end

for.body:                                         ; preds = %for.cond
  %8 = load i64, ptr %freeBits, align 8
  %9 = call i64 @llvm.cttz.i64(i64 %8, i1 true)
  %cast3 = trunc i64 %9 to i32
  store i32 %cast3, ptr %bit, align 4
  %pageAllocated_4 = getelementptr inbounds %"class.facebook::velox::memory::MmapAllocator::SizeClass", ptr %this1, i32 0, i32 10
  %10 = load i32, ptr %wordIndex.addr, align 4
  %conv5 = sext i32 %10 to i64
  %call6 = call noundef nonnull align 8 dereferenceable(8) ptr @_ZNSt6vectorImSaImEEixEm(ptr noundef nonnull align 8 dereferenceable(24) %pageAllocated_4, i64 noundef %conv5) #21
  %11 = load i32, ptr %bit, align 4
  call void @_ZN8facebook5velox4bits6setBitImEEvPT_j(ptr noundef %call6, i32 noundef %11)
  %pageMapped_ = getelementptr inbounds %"class.facebook::velox::memory::MmapAllocator::SizeClass", ptr %this1, i32 0, i32 11
  %12 = load i32, ptr %wordIndex.addr, align 4
  %conv7 = sext i32 %12 to i64
  %call8 = call noundef nonnull align 8 dereferenceable(8) ptr @_ZNSt6vectorImSaImEEixEm(ptr noundef nonnull align 8 dereferenceable(24) %pageMapped_, i64 noundef %conv7) #21
  %13 = load i64, ptr %call8, align 8
  %14 = load i32, ptr %bit, align 4
  %sh_prom = zext i32 %14 to i64
  %shl = shl i64 1, %sh_prom
  %and = and i64 %13, %shl
  %tobool = icmp ne i64 %and, 0
  br i1 %tobool, label %if.else, label %if.then

if.then:                                          ; preds = %for.body
  %unitSize_ = getelementptr inbounds %"class.facebook::velox::memory::MmapAllocator::SizeClass", ptr %this1, i32 0, i32 1
  %15 = load i64, ptr %unitSize_, align 8
  %16 = load ptr, ptr %numUnmapped.addr, align 8
  %17 = load i64, ptr %16, align 8
  %add = add i64 %17, %15
  store i64 %add, ptr %16, align 8
  br label %if.end

if.else:                                          ; preds = %for.body
  %numMappedFreePages_ = getelementptr inbounds %"class.facebook::velox::memory::MmapAllocator::SizeClass", ptr %this1, i32 0, i32 7
  %18 = load i32, ptr %numMappedFreePages_, align 4
  %dec = add nsw i32 %18, -1
  store i32 %dec, ptr %numMappedFreePages_, align 4
  br label %if.end

if.end:                                           ; preds = %if.else, %if.then
  %19 = load ptr, ptr %allocation.addr, align 8
  %address_ = getelementptr inbounds %"class.facebook::velox::memory::MmapAllocator::SizeClass", ptr %this1, i32 0, i32 5
  %20 = load ptr, ptr %address_, align 8
  %unitSize_9 = getelementptr inbounds %"class.facebook::velox::memory::MmapAllocator::SizeClass", ptr %this1, i32 0, i32 1
  %21 = load i64, ptr %unitSize_9, align 8
  %mul = mul i64 4096, %21
  %22 = load i32, ptr %bit, align 4
  %23 = load i32, ptr %wordIndex.addr, align 4
  %mul10 = mul nsw i32 %23, 64
  %add11 = add nsw i32 %22, %mul10
  %conv12 = sext i32 %add11 to i64
  %mul13 = mul i64 %mul, %conv12
  %add.ptr = getelementptr inbounds i8, ptr %20, i64 %mul13
  %unitSize_14 = getelementptr inbounds %"class.facebook::velox::memory::MmapAllocator::SizeClass", ptr %this1, i32 0, i32 1
  %24 = load i64, ptr %unitSize_14, align 8
  %conv15 = trunc i64 %24 to i32
  call void @_ZN8facebook5velox6memory10Allocation6appendEPhi(ptr noundef nonnull align 8 dereferenceable(36) %19, ptr noundef %add.ptr, i32 noundef %conv15)
  %25 = load i64, ptr %freeBits, align 8
  %sub = sub i64 %25, 1
  %26 = load i64, ptr %freeBits, align 8
  %and16 = and i64 %26, %sub
  store i64 %and16, ptr %freeBits, align 8
  br label %for.inc

for.inc:                                          ; preds = %if.end
  %27 = load i32, ptr %i, align 4
  %inc = add nsw i32 %27, 1
  store i32 %inc, ptr %i, align 4
  br label %for.cond, !llvm.loop !64

for.end:                                          ; preds = %for.cond
  %28 = load i32, ptr %toAlloc, align 4
  %29 = load ptr, ptr %numPages.addr, align 8
  %30 = load i32, ptr %29, align 4
  %sub17 = sub nsw i32 %30, %28
  store i32 %sub17, ptr %29, align 4
  ret void
}