; Function Attrs: mustprogress uwtable
define void @_ZN8facebook5velox6memory13MmapAllocator9SizeClass11allocateAnyEiRiRmRNS1_10AllocationE(ptr nocapture noundef nonnull align 8 dereferenceable(192) %this, i32 noundef %wordIndex, ptr nocapture noundef nonnull align 4 dereferenceable(4) %numPages, ptr nocapture noundef nonnull align 8 dereferenceable(8) %numUnmapped, ptr noundef nonnull align 8 dereferenceable(36) %allocation) local_unnamed_addr #0 align 2 {
entry:
  %pageAllocated_ = getelementptr inbounds i8, ptr %this, i64 120
  %conv = sext i32 %wordIndex to i64
  %0 = load ptr, ptr %pageAllocated_, align 8
  %add.ptr.i = getelementptr inbounds i64, ptr %0, i64 %conv
  %1 = load i64, ptr %add.ptr.i, align 8
  %not = xor i64 %1, -1
  %2 = tail call i64 @llvm.ctpop.i64(i64 %not), !range !25
  %cast = trunc i64 %2 to i32
  %3 = load i32, ptr %numPages, align 4
  %.sroa.speculated = tail call i32 @llvm.smin.i32(i32 %3, i32 %cast)
  %cmp15 = icmp sgt i32 %.sroa.speculated, 0
  br i1 %cmp15, label %for.body.lr.ph, label %for.end

for.body.lr.ph:                                   ; preds = %entry
  %pageMapped_ = getelementptr inbounds i8, ptr %this, i64 144
  %numMappedFreePages_ = getelementptr inbounds i8, ptr %this, i64 84
  %unitSize_ = getelementptr inbounds i8, ptr %this, i64 8
  %address_ = getelementptr inbounds i8, ptr %this, i64 72
  %mul10 = shl nsw i32 %wordIndex, 6
  br label %for.body

for.body:                                         ; preds = %for.body.lr.ph, %if.end
  %freeBits.017 = phi i64 [ %not, %for.body.lr.ph ], [ %and16, %if.end ]
  %i.016 = phi i32 [ 0, %for.body.lr.ph ], [ %inc, %if.end ]
  %4 = tail call i64 @llvm.cttz.i64(i64 %freeBits.017, i1 true), !range !25
  %cast3 = trunc i64 %4 to i32
  %5 = load ptr, ptr %pageAllocated_, align 8
  %add.ptr.i12 = getelementptr inbounds i64, ptr %5, i64 %conv
  %rem.i = and i32 %cast3, 7
  %shl.i = shl nuw nsw i32 1, %rem.i
  %div2.i = lshr i64 %4, 3
  %arrayidx.i = getelementptr inbounds i8, ptr %add.ptr.i12, i64 %div2.i
  %6 = load i8, ptr %arrayidx.i, align 1
  %7 = trunc i32 %shl.i to i8
  %conv1.i = or i8 %6, %7
  store i8 %conv1.i, ptr %arrayidx.i, align 1
  %8 = load ptr, ptr %pageMapped_, align 8
  %add.ptr.i13 = getelementptr inbounds i64, ptr %8, i64 %conv
  %9 = load i64, ptr %add.ptr.i13, align 8
  %shl = shl nuw i64 1, %4
  %and = and i64 %9, %shl
  %tobool.not = icmp eq i64 %and, 0
  br i1 %tobool.not, label %if.then, label %if.else

if.then:                                          ; preds = %for.body
  %10 = load i64, ptr %unitSize_, align 8
  %11 = load i64, ptr %numUnmapped, align 8
  %add = add i64 %11, %10
  store i64 %add, ptr %numUnmapped, align 8
  br label %if.end

if.else:                                          ; preds = %for.body
  %12 = load i32, ptr %numMappedFreePages_, align 4
  %dec = add nsw i32 %12, -1
  store i32 %dec, ptr %numMappedFreePages_, align 4
  br label %if.end

if.end:                                           ; preds = %if.else, %if.then
  %13 = load ptr, ptr %address_, align 8
  %14 = load i64, ptr %unitSize_, align 8
  %add11 = or disjoint i32 %mul10, %cast3
  %conv12 = sext i32 %add11 to i64
  %mul = shl nsw i64 %conv12, 12
  %mul13 = mul i64 %mul, %14
  %add.ptr = getelementptr inbounds i8, ptr %13, i64 %mul13
  %conv15 = trunc i64 %14 to i32
  tail call void @_ZN8facebook5velox6memory10Allocation6appendEPhi(ptr noundef nonnull align 8 dereferenceable(36) %allocation, ptr noundef %add.ptr, i32 noundef %conv15)
  %sub = add i64 %freeBits.017, -1
  %and16 = and i64 %sub, %freeBits.017
  %inc = add nuw nsw i32 %i.016, 1
  %exitcond.not = icmp eq i32 %inc, %.sroa.speculated
  br i1 %exitcond.not, label %for.end.loopexit, label %for.body, !llvm.loop !58

for.end.loopexit:                                 ; preds = %if.end
  %.pre = load i32, ptr %numPages, align 4
  br label %for.end

for.end:                                          ; preds = %for.end.loopexit, %entry
  %15 = phi i32 [ %.pre, %for.end.loopexit ], [ %3, %entry ]
  %sub17 = sub nsw i32 %15, %.sroa.speculated
  store i32 %sub17, ptr %numPages, align 4
  ret void
}